target datalayout = "e-m:e-p270:32:32-p271:32:32-p272:64:64-i64:64-i128:128-f80:128-n8:16:32:64-S128"
target triple = "x86_64-unknown-linux-gnu"

%"class.std::__cxx11::basic_string" = type { %"struct.std::__cxx11::basic_string<char>::_Alloc_hider", i64, %union.anon }
%"struct.std::__cxx11::basic_string<char>::_Alloc_hider" = type { ptr }
%union.anon = type { i64, [8 x i8] }
%"class.std::unique_ptr" = type { %"struct.std::__uniq_ptr_data" }
%"struct.std::__uniq_ptr_data" = type { %"class.std::__uniq_ptr_impl" }
%"class.std::__uniq_ptr_impl" = type { %"class.std::tuple" }
%"class.std::tuple" = type { %"struct.std::_Tuple_impl" }
%"struct.std::_Tuple_impl" = type { %"struct.std::_Head_base.1" }
%"struct.std::_Head_base.1" = type { ptr }
%"class.folly::Range" = type { ptr, ptr }
%"class.folly::IOBufQueue" = type { %"struct.folly::IOBufQueue::Options", i64, %"class.std::unique_ptr", ptr, ptr, %"struct.folly::IOBufQueue::WritableRangeCacheData", ptr }
%"struct.folly::IOBufQueue::Options" = type { i8 }
%"struct.folly::IOBufQueue::WritableRangeCacheData" = type <{ %"struct.std::pair", i8, [7 x i8] }>
%"struct.std::pair" = type { ptr, ptr }
%"class.google::LogMessage" = type { ptr, ptr, %"struct.google::LogMessageTime" }
%"struct.google::LogMessageTime" = type { %struct.tm, i64, i32, i64 }
%struct.tm = type { i32, i32, i32, i32, i32, i32, i32, i32, i32, i64, ptr }
%"class.proxygen::RFC1867Codec" = type <{ %"class.proxygen::HTTPCodec::Callback", %"class.std::__cxx11::basic_string", ptr, i32, [4 x i8], %"class.proxygen::HTTP1xCodec", %"class.std::__cxx11::basic_string", %"class.folly::IOBufQueue", %"class.folly::IOBufQueue", %"class.std::unique_ptr", i64, i8, [7 x i8] }>
%"class.proxygen::HTTPCodec::Callback" = type { ptr }
%"class.proxygen::HTTP1xCodec" = type <{ %"class.proxygen::HTTPCodec", %"class.std::__cxx11::basic_string", ptr, i64, i64, %"struct.proxygen::http_parser", ptr, %"class.std::unique_ptr.2", %"class.std::unique_ptr.2", %"class.std::unique_ptr.10", %"class.std::__cxx11::basic_string", %"class.folly::Range", %"class.std::__cxx11::basic_string", %"class.std::__cxx11::basic_string", %"class.std::__cxx11::basic_string", %"class.std::__cxx11::basic_string", %"class.std::__cxx11::basic_string", %"class.std::__cxx11::basic_string", %"struct.proxygen::HTTPHeaderSize", i8, i8, i8, i8, %"struct.std::pair.18", i32, [4 x i8] }>
%"class.proxygen::HTTPCodec" = type { ptr }
%"struct.proxygen::http_parser" = type { i8, i8, i8, i8, i32, i64, i16, i16, i16, i8, i8, ptr }
%"class.std::unique_ptr.2" = type { %"struct.std::__uniq_ptr_data.3" }
%"struct.std::__uniq_ptr_data.3" = type { %"class.std::__uniq_ptr_impl.4" }
%"class.std::__uniq_ptr_impl.4" = type { %"class.std::tuple.5" }
%"class.std::tuple.5" = type { %"struct.std::_Tuple_impl.6" }
%"struct.std::_Tuple_impl.6" = type { %"struct.std::_Head_base.9" }
%"struct.std::_Head_base.9" = type { ptr }
%"class.std::unique_ptr.10" = type { %"struct.std::__uniq_ptr_data.11" }
%"struct.std::__uniq_ptr_data.11" = type { %"class.std::__uniq_ptr_impl.12" }
%"class.std::__uniq_ptr_impl.12" = type { %"class.std::tuple.13" }
%"class.std::tuple.13" = type { %"struct.std::_Tuple_impl.14" }
%"struct.std::_Tuple_impl.14" = type { %"struct.std::_Head_base.17" }
%"struct.std::_Head_base.17" = type { ptr }
%"struct.proxygen::HTTPHeaderSize" = type { i32, i32, i32 }
%"struct.std::pair.18" = type { i8, %"class.std::__cxx11::basic_string" }

@.str.2 = private unnamed_addr constant [138 x i8] c"generated/home/dtcxzyw/WorkSpace/Projects/compilers/llvm-opt-benchmark/bench/proxygen/proxygen/proxygen/lib/http/experimental/RFC1867.cpp\00", align 1
@.str.15 = private unnamed_addr constant [33 x i8] c"Field not terminated by boundary\00", align 1
@.str.16 = private unnamed_addr constant [26 x i8] c"onIngressEOM with state_=\00", align 1

; Function Attrs: mustprogress uwtable
define void @_ZN8proxygen12RFC1867Codec12onIngressEOMEv(ptr noundef nonnull align 8 dereferenceable(681) %this) #4 align 2 personality ptr @__gxx_personality_v0 {
entry:
  %this.addr = alloca ptr, align 8
  %ref.tmp = alloca %"class.google::LogMessage", align 8
  %exn.slot = alloca ptr, align 8
  %ehselector.slot = alloca i32, align 4
  %ref.tmp18 = alloca %"class.google::LogMessage", align 8
  store ptr %this, ptr %this.addr, align 8
  %this1 = load ptr, ptr %this.addr, align 8
  %state_ = getelementptr inbounds %"class.proxygen::RFC1867Codec", ptr %this1, i32 0, i32 3
  %0 = load i32, ptr %state_, align 8
  %cmp = icmp eq i32 %0, 3
  br i1 %cmp, label %if.then, label %if.end6

if.then:                                          ; preds = %entry
  call void @_ZN6google10LogMessageC1EPKcii(ptr noundef nonnull align 8 dereferenceable(96) %ref.tmp, ptr noundef @.str.2, i32 noundef 296, i32 noundef 1)
  %call = invoke noundef nonnull align 8 dereferenceable(8) ptr @_ZN6google10LogMessage6streamEv(ptr noundef nonnull align 8 dereferenceable(96) %ref.tmp)
          to label %invoke.cont unwind label %lpad

invoke.cont:                                      ; preds = %if.then
  %call3 = invoke noundef nonnull align 8 dereferenceable(8) ptr @_ZStlsISt11char_traitsIcEERSt13basic_ostreamIcT_ES5_PKc(ptr noundef nonnull align 8 dereferenceable(8) %call, ptr noundef @.str.15)
          to label %invoke.cont2 unwind label %lpad

invoke.cont2:                                     ; preds = %invoke.cont
  call void @_ZN6google10LogMessageD1Ev(ptr noundef nonnull align 8 dereferenceable(96) %ref.tmp) #3
  %callback_ = getelementptr inbounds %"class.proxygen::RFC1867Codec", ptr %this1, i32 0, i32 2
  %1 = load ptr, ptr %callback_, align 8
  %tobool = icmp ne ptr %1, null
  br i1 %tobool, label %if.then4, label %if.end

if.then4:                                         ; preds = %invoke.cont2
  %callback_5 = getelementptr inbounds %"class.proxygen::RFC1867Codec", ptr %this1, i32 0, i32 2
  %2 = load ptr, ptr %callback_5, align 8
  %bytesProcessed_ = getelementptr inbounds %"class.proxygen::RFC1867Codec", ptr %this1, i32 0, i32 10
  %3 = load i64, ptr %bytesProcessed_, align 8
  %vtable = load ptr, ptr %2, align 8
  %vfn = getelementptr inbounds ptr, ptr %vtable, i64 4
  %4 = load ptr, ptr %vfn, align 8
  call void %4(ptr noundef nonnull align 8 dereferenceable(8) %2, i1 noundef zeroext false, i64 noundef %3)
  br label %if.end

lpad:                                             ; preds = %invoke.cont, %if.then
  %5 = landingpad { ptr, i32 }
          cleanup
  %6 = extractvalue { ptr, i32 } %5, 0
  store ptr %6, ptr %exn.slot, align 8
  %7 = extractvalue { ptr, i32 } %5, 1
  store i32 %7, ptr %ehselector.slot, align 4
  call void @_ZN6google10LogMessageD1Ev(ptr noundef nonnull align 8 dereferenceable(96) %ref.tmp) #3
  br label %eh.resume

if.end:                                           ; preds = %if.then4, %invoke.cont2
  br label %if.end6

if.end6:                                          ; preds = %if.end, %entry
  %state_7 = getelementptr inbounds %"class.proxygen::RFC1867Codec", ptr %this1, i32 0, i32 3
  %8 = load i32, ptr %state_7, align 8
  %cmp8 = icmp ne i32 %8, 1
  br i1 %cmp8, label %land.lhs.true, label %if.end31

land.lhs.true:                                    ; preds = %if.end6
  %state_9 = getelementptr inbounds %"class.proxygen::RFC1867Codec", ptr %this1, i32 0, i32 3
  %9 = load i32, ptr %state_9, align 8
  %cmp10 = icmp ne i32 %9, 5
  br i1 %cmp10, label %land.lhs.true11, label %if.end31

land.lhs.true11:                                  ; preds = %land.lhs.true
  %state_12 = getelementptr inbounds %"class.proxygen::RFC1867Codec", ptr %this1, i32 0, i32 3
  %10 = load i32, ptr %state_12, align 8
  %cmp13 = icmp ne i32 %10, 4
  br i1 %cmp13, label %if.then14, label %if.end31

if.then14:                                        ; preds = %land.lhs.true11
  %callback_15 = getelementptr inbounds %"class.proxygen::RFC1867Codec", ptr %this1, i32 0, i32 2
  %11 = load ptr, ptr %callback_15, align 8
  %tobool16 = icmp ne ptr %11, null
  br i1 %tobool16, label %if.then17, label %if.end30

if.then17:                                        ; preds = %if.then14
  call void @_ZN6google10LogMessageC1EPKcii(ptr noundef nonnull align 8 dereferenceable(96) %ref.tmp18, ptr noundef @.str.2, i32 noundef 304, i32 noundef 2)
  %call21 = invoke noundef nonnull align 8 dereferenceable(8) ptr @_ZN6google10LogMessage6streamEv(ptr noundef nonnull align 8 dereferenceable(96) %ref.tmp18)
          to label %invoke.cont20 unwind label %lpad19

invoke.cont20:                                    ; preds = %if.then17
  %call23 = invoke noundef nonnull align 8 dereferenceable(8) ptr @_ZStlsISt11char_traitsIcEERSt13basic_ostreamIcT_ES5_PKc(ptr noundef nonnull align 8 dereferenceable(8) %call21, ptr noundef @.str.16)
          to label %invoke.cont22 unwind label %lpad19

invoke.cont22:                                    ; preds = %invoke.cont20
  %state_24 = getelementptr inbounds %"class.proxygen::RFC1867Codec", ptr %this1, i32 0, i32 3
  %12 = load i32, ptr %state_24, align 8
  %conv = trunc i32 %12 to i8
  %call26 = invoke noundef nonnull align 8 dereferenceable(8) ptr @_ZStlsISt11char_traitsIcEERSt13basic_ostreamIcT_ES5_h(ptr noundef nonnull align 8 dereferenceable(8) %call23, i8 noundef zeroext %conv)
          to label %invoke.cont25 unwind label %lpad19

invoke.cont25:                                    ; preds = %invoke.cont22
  call void @_ZN6google10LogMessageD1Ev(ptr noundef nonnull align 8 dereferenceable(96) %ref.tmp18) #3
  %callback_27 = getelementptr inbounds %"class.proxygen::RFC1867Codec", ptr %this1, i32 0, i32 2
  %13 = load ptr, ptr %callback_27, align 8
  %vtable28 = load ptr, ptr %13, align 8
  %vfn29 = getelementptr inbounds ptr, ptr %vtable28, i64 5
  %14 = load ptr, ptr %vfn29, align 8
  call void %14(ptr noundef nonnull align 8 dereferenceable(8) %13)
  br label %if.end30

lpad19:                                           ; preds = %invoke.cont22, %invoke.cont20, %if.then17
  %15 = landingpad { ptr, i32 }
          cleanup
  %16 = extractvalue { ptr, i32 } %15, 0
  store ptr %16, ptr %exn.slot, align 8
  %17 = extractvalue { ptr, i32 } %15, 1
  store i32 %17, ptr %ehselector.slot, align 4
  call void @_ZN6google10LogMessageD1Ev(ptr noundef nonnull align 8 dereferenceable(96) %ref.tmp18) #3
  br label %eh.resume

if.end30:                                         ; preds = %invoke.cont25, %if.then14
  br label %if.end31

if.end31:                                         ; preds = %if.end30, %land.lhs.true11, %land.lhs.true, %if.end6
  %state_32 = getelementptr inbounds %"class.proxygen::RFC1867Codec", ptr %this1, i32 0, i32 3
  store i32 0, ptr %state_32, align 8
  ret void

eh.resume:                                        ; preds = %lpad19, %lpad
  %exn = load ptr, ptr %exn.slot, align 8
  %sel = load i32, ptr %ehselector.slot, align 4
  %lpad.val = insertvalue { ptr, i32 } poison, ptr %exn, 0
  %lpad.val33 = insertvalue { ptr, i32 } %lpad.val, i32 %sel, 1
  resume { ptr, i32 } %lpad.val33
}