; Function Attrs: mustprogress uwtable
define void @_ZN8proxygen12RFC1867Codec12onIngressEOMEv(ptr nocapture noundef nonnull align 8 dereferenceable(681) %this) local_unnamed_addr #3 align 2 personality ptr @__gxx_personality_v0 {
entry:
  %ref.tmp = alloca %"class.google::LogMessage", align 8
  %ref.tmp18 = alloca %"class.google::LogMessage", align 8
  %state_ = getelementptr inbounds i8, ptr %this, i64 48
  %0 = load i32, ptr %state_, align 8
  %cmp = icmp eq i32 %0, 3
  br i1 %cmp, label %if.then, label %if.end6

if.then:                                          ; preds = %entry
  call void @_ZN6google10LogMessageC1EPKcii(ptr noundef nonnull align 8 dereferenceable(96) %ref.tmp, ptr noundef nonnull @.str.2, i32 noundef 296, i32 noundef 1)
  %call = invoke noundef nonnull align 8 dereferenceable(8) ptr @_ZN6google10LogMessage6streamEv(ptr noundef nonnull align 8 dereferenceable(96) %ref.tmp)
          to label %invoke.cont unwind label %lpad

invoke.cont:                                      ; preds = %if.then
  %call3 = invoke noundef nonnull align 8 dereferenceable(8) ptr @_ZStlsISt11char_traitsIcEERSt13basic_ostreamIcT_ES5_PKc(ptr noundef nonnull align 8 dereferenceable(8) %call, ptr noundef nonnull @.str.15)
          to label %invoke.cont2 unwind label %lpad

invoke.cont2:                                     ; preds = %invoke.cont
  call void @_ZN6google10LogMessageD1Ev(ptr noundef nonnull align 8 dereferenceable(96) %ref.tmp) #18
  %callback_ = getelementptr inbounds i8, ptr %this, i64 40
  %1 = load ptr, ptr %callback_, align 8
  %tobool.not = icmp eq ptr %1, null
  br i1 %tobool.not, label %if.end6thread-pre-split, label %if.then4

if.then4:                                         ; preds = %invoke.cont2
  %bytesProcessed_ = getelementptr inbounds i8, ptr %this, i64 672
  %2 = load i64, ptr %bytesProcessed_, align 8
  %vtable = load ptr, ptr %1, align 8
  %vfn = getelementptr inbounds i8, ptr %vtable, i64 32
  %3 = load ptr, ptr %vfn, align 8
  call void %3(ptr noundef nonnull align 8 dereferenceable(8) %1, i1 noundef zeroext false, i64 noundef %2)
  br label %if.end6thread-pre-split

lpad:                                             ; preds = %invoke.cont, %if.then
  %4 = landingpad { ptr, i32 }
          cleanup
  br label %eh.resume

if.end6thread-pre-split:                          ; preds = %if.then4, %invoke.cont2
  %.pr = load i32, ptr %state_, align 8
  br label %if.end6

if.end6:                                          ; preds = %if.end6thread-pre-split, %entry
  %5 = phi i32 [ %.pr, %if.end6thread-pre-split ], [ %0, %entry ]
  switch i32 %5, label %if.then14 [
    i32 1, label %if.end31
    i32 5, label %if.end31
    i32 4, label %if.end31
  ]

if.then14:                                        ; preds = %if.end6
  %callback_15 = getelementptr inbounds i8, ptr %this, i64 40
  %6 = load ptr, ptr %callback_15, align 8
  %tobool16.not = icmp eq ptr %6, null
  br i1 %tobool16.not, label %if.end31, label %if.then17

if.then17:                                        ; preds = %if.then14
  call void @_ZN6google10LogMessageC1EPKcii(ptr noundef nonnull align 8 dereferenceable(96) %ref.tmp18, ptr noundef nonnull @.str.2, i32 noundef 304, i32 noundef 2)
  %call21 = invoke noundef nonnull align 8 dereferenceable(8) ptr @_ZN6google10LogMessage6streamEv(ptr noundef nonnull align 8 dereferenceable(96) %ref.tmp18)
          to label %invoke.cont20 unwind label %lpad19

invoke.cont20:                                    ; preds = %if.then17
  %call23 = invoke noundef nonnull align 8 dereferenceable(8) ptr @_ZStlsISt11char_traitsIcEERSt13basic_ostreamIcT_ES5_PKc(ptr noundef nonnull align 8 dereferenceable(8) %call21, ptr noundef nonnull @.str.16)
          to label %invoke.cont22 unwind label %lpad19

invoke.cont22:                                    ; preds = %invoke.cont20
  %7 = load i32, ptr %state_, align 8
  %conv = trunc i32 %7 to i8
  %call26 = invoke noundef nonnull align 8 dereferenceable(8) ptr @_ZStlsISt11char_traitsIcEERSt13basic_ostreamIcT_ES5_h(ptr noundef nonnull align 8 dereferenceable(8) %call23, i8 noundef zeroext %conv)
          to label %invoke.cont25 unwind label %lpad19

invoke.cont25:                                    ; preds = %invoke.cont22
  call void @_ZN6google10LogMessageD1Ev(ptr noundef nonnull align 8 dereferenceable(96) %ref.tmp18) #18
  %8 = load ptr, ptr %callback_15, align 8
  %vtable28 = load ptr, ptr %8, align 8
  %vfn29 = getelementptr inbounds i8, ptr %vtable28, i64 40
  %9 = load ptr, ptr %vfn29, align 8
  call void %9(ptr noundef nonnull align 8 dereferenceable(8) %8)
  br label %if.end31

lpad19:                                           ; preds = %invoke.cont22, %invoke.cont20, %if.then17
  %10 = landingpad { ptr, i32 }
          cleanup
  br label %eh.resume

if.end31:                                         ; preds = %if.end6, %if.end6, %if.end6, %if.then14, %invoke.cont25
  store i32 0, ptr %state_, align 8
  ret void

eh.resume:                                        ; preds = %lpad19, %lpad
  %ref.tmp18.sink = phi ptr [ %ref.tmp18, %lpad19 ], [ %ref.tmp, %lpad ]
  %.pn = phi { ptr, i32 } [ %10, %lpad19 ], [ %4, %lpad ]
  call void @_ZN6google10LogMessageD1Ev(ptr noundef nonnull align 8 dereferenceable(96) %ref.tmp18.sink) #18
  resume { ptr, i32 } %.pn
}